Certificate:
    Data:
        Version: 3 (0x2)
        Serial Number: 1 (0x1)
    Signature Algorithm: sha256WithRSAEncryption
        Issuer: CN=devcert
        Validity
            Not Before: Aug 24 17:49:01 2021 GMT
            Not After : Nov 27 17:49:01 2023 GMT
        Subject: CN=localhost
        Subject Public Key Info:
            Public Key Algorithm: rsaEncryption
                Public-Key: (2048 bit)
                Modulus:
                    00:cf:9e:23:3e:4f:20:61:8f:2f:ca:6f:bc:2f:38:
                    a7:39:b5:9e:d7:2b:11:6a:56:59:35:44:4e:bf:47:
                    d0:d7:4c:80:6c:25:d6:1d:35:d4:56:28:4f:c0:fa:
                    68:0b:7a:64:ea:10:d1:e3:e1:4b:66:28:f6:a6:2b:
                    6c:e1:02:47:41:a7:e2:55:6a:a7:38:e9:f3:a2:56:
                    8e:69:f6:a6:3a:cb:8d:7c:6d:b3:35:a3:a5:8f:db:
                    69:8d:02:ed:f7:f0:d2:df:a4:a3:83:01:44:77:d8:
                    fc:e5:da:47:3f:6f:4f:b3:bd:3d:c1:b3:7e:a0:86:
                    5e:b5:94:07:06:5f:40:e3:b2:6a:21:d6:19:e4:21:
                    2f:c8:57:20:05:b6:a3:1a:01:a2:a7:c8:7f:68:1a:
                    ff:ec:a9:65:59:6b:b4:9c:2d:6f:87:05:12:42:87:
                    0e:86:76:81:fd:ce:c1:21:4d:23:11:21:c7:81:66:
                    88:1f:a9:8b:75:c0:5b:25:62:17:6d:46:d7:6d:2f:
                    64:db:a5:48:20:8a:3d:4b:fd:1a:78:f6:0b:d6:c5:
                    f1:5c:d6:b9:5d:69:72:1e:37:c5:65:d8:51:a8:15:
                    66:5f:53:c0:2d:7d:29:d8:f7:22:7e:72:fc:f7:51:
                    5a:f2:54:db:6e:12:a6:eb:46:e7:39:0f:c0:35:6b:
                    d8:27
                Exponent: 65537 (0x10001)
        X509v3 extensions:
            X509v3 Basic Constraints: critical
                CA:FALSE
            X509v3 Subject Key Identifier: 
                FC:FE:97:03:D8:33:3A:2F:E2:5A:E5:F2:A2:FB:C2:75:FC:53:D8:3B
            X509v3 Authority Key Identifier: 
                keyid:7F:86:64:7F:15:E3:91:29:5A:2B:0C:94:B8:6B:B9:3A:C4:B1:AB:1F
                DirName:/CN=devcert
                serial:BE:42:B4:38:22:D7:10:87

            X509v3 Key Usage: critical
                Digital Signature, Key Encipherment
            X509v3 Extended Key Usage: 
                TLS Web Server Authentication
            X509v3 Subject Alternative Name: 
                DNS:localhost, DNS:*.localhost
    Signature Algorithm: sha256WithRSAEncryption
         92:9b:97:d6:5c:f8:ac:51:39:0e:4b:01:06:c0:52:54:64:8b:
         f0:58:72:6e:fa:02:c3:d2:08:23:2f:1b:6d:cc:46:93:06:d2:
         c5:18:9f:01:46:c0:a1:a4:80:98:0c:42:de:a6:e3:0d:52:43:
         83:bb:74:33:a6:2a:56:8e:13:e0:8b:5d:b4:af:2e:36:b4:24:
         68:bc:51:ac:09:f7:f2:c9:f9:b4:03:b7:f6:68:4c:91:01:ed:
         92:7c:08:7e:29:66:0e:b1:d2:2f:0b:05:f4:6a:06:c6:32:37:
         64:d4:07:d0:f7:ec:42:1e:1f:5a:a1:3f:7c:dd:e0:bb:00:07:
         9c:71:31:04:4d:a5:60:12:62:42:4d:b6:9f:cb:5d:ed:07:bf:
         4e:c9:a4:f3:c4:eb:fe:2f:15:f7:81:9d:23:b8:e9:1e:48:cb:
         3b:67:80:9d:b5:8b:7e:8d:34:e5:67:b1:fb:54:e4:6e:80:fd:
         4f:c5:8e:7d:62:a0:2b:47:5e:5e:20:20:96:31:7e:e1:1a:74:
         8e:3a:92:cb:07:bc:11:0e:73:5b:d2:0e:6d:a1:43:40:83:a1:
         9b:e7:51:ef:cd:1d:b7:0a:bb:25:a3:c9:7c:ce:de:7c:c3:99:
         61:55:5e:c6:d0:7b:8a:c2:ec:2a:f2:ee:2c:6e:ed:d4:ee:d0:
         8c:01:ad:21
-----BEGIN CERTIFICATE-----
MIIDXjCCAkagAwIBAgIBATANBgkqhkiG9w0BAQsFADASMRAwDgYDVQQDDAdkZXZj
ZXJ0MB4XDTIxMDgyNDE3NDkwMVoXDTIzMTEyNzE3NDkwMVowFDESMBAGA1UEAwwJ
bG9jYWxob3N0MIIBIjANBgkqhkiG9w0BAQEFAAOCAQ8AMIIBCgKCAQEAz54jPk8g
YY8vym+8LzinObWe1ysRalZZNUROv0fQ10yAbCXWHTXUVihPwPpoC3pk6hDR4+FL
Zij2pits4QJHQafiVWqnOOnzolaOafamOsuNfG2zNaOlj9tpjQLt9/DS36SjgwFE
d9j85dpHP29Ps709wbN+oIZetZQHBl9A47JqIdYZ5CEvyFcgBbajGgGip8h/aBr/
7KllWWu0nC1vhwUSQocOhnaB/c7BIU0jESHHgWaIH6mLdcBbJWIXbUbXbS9k26VI
IIo9S/0aePYL1sXxXNa5XWlyHjfFZdhRqBVmX1PALX0p2PcifnL891Fa8lTbbhKm
60bnOQ/ANWvYJwIDAQABo4G8MIG5MAwGA1UdEwEB/wQCMAAwHQYDVR0OBBYEFPz+
lwPYMzov4lrl8qL7wnX8U9g7MEIGA1UdIwQ7MDmAFH+GZH8V45EpWisMlLhruTrE
sasfoRakFDASMRAwDgYDVQQDDAdkZXZjZXJ0ggkAvkK0OCLXEIcwDgYDVR0PAQH/
BAQDAgWgMBMGA1UdJQQMMAoGCCsGAQUFBwMBMCEGA1UdEQQaMBiCCWxvY2FsaG9z
dIILKi5sb2NhbGhvc3QwDQYJKoZIhvcNAQELBQADggEBAJKbl9Zc+KxROQ5LAQbA
UlRki/BYcm76AsPSCCMvG23MRpMG0sUYnwFGwKGkgJgMQt6m4w1SQ4O7dDOmKlaO
E+CLXbSvLja0JGi8UawJ9/LJ+bQDt/ZoTJEB7ZJ8CH4pZg6x0i8LBfRqBsYyN2TU
B9D37EIeH1qhP3zd4LsAB5xxMQRNpWASYkJNtp/LXe0Hv07JpPPE6/4vFfeBnSO4
6R5IyztngJ21i36NNOVnsftU5G6A/U/Fjn1ioCtHXl4gIJYxfuEadI46kssHvBEO
c1vSDm2hQ0CDoZvnUe/NHbcKuyWjyXzO3nzDmWFVXsbQe4rC7Cry7ixu7dTu0IwB
rSE=
-----END CERTIFICATE-----
